target datalayout = "e-m:e-p270:32:32-p271:32:32-p272:64:64-i64:64-i128:128-f80:128-n8:16:32:64-S128"
target triple = "x86_64-pc-linux-gnu"

%"class.std::shared_ptr" = type { %"class.std::__shared_ptr" }
%"class.std::__shared_ptr" = type { ptr, %"class.std::__shared_count" }
%"class.std::__shared_count" = type { ptr }
%"class.std::vector.9" = type { %"struct.std::_Vector_base.10" }
%"struct.std::_Vector_base.10" = type { %"struct.std::_Vector_base<open_spiel::breakthrough::CellState, std::allocator<open_spiel::breakthrough::CellState>>::_Vector_impl" }
%"struct.std::_Vector_base<open_spiel::breakthrough::CellState, std::allocator<open_spiel::breakthrough::CellState>>::_Vector_impl" = type { %"struct.std::_Vector_base<open_spiel::breakthrough::CellState, std::allocator<open_spiel::breakthrough::CellState>>::_Vector_impl_data" }
%"struct.std::_Vector_base<open_spiel::breakthrough::CellState, std::allocator<open_spiel::breakthrough::CellState>>::_Vector_impl_data" = type { ptr, ptr, ptr }
%"class.open_spiel::breakthrough::BreakthroughState" = type { %"class.open_spiel::State.base", i32, i32, i32, %"struct.std::array", i32, i32, %"class.std::vector.9" }
%"class.open_spiel::State.base" = type <{ ptr, %"class.std::shared_ptr", i32, i32, %"class.std::vector", i32 }>
%"class.std::vector" = type { %"struct.std::_Vector_base" }
%"struct.std::_Vector_base" = type { %"struct.std::_Vector_base<open_spiel::State::PlayerAction, std::allocator<open_spiel::State::PlayerAction>>::_Vector_impl" }
%"struct.std::_Vector_base<open_spiel::State::PlayerAction, std::allocator<open_spiel::State::PlayerAction>>::_Vector_impl" = type { %"struct.std::_Vector_base<open_spiel::State::PlayerAction, std::allocator<open_spiel::State::PlayerAction>>::_Vector_impl_data" }
%"struct.std::_Vector_base<open_spiel::State::PlayerAction, std::allocator<open_spiel::State::PlayerAction>>::_Vector_impl_data" = type { ptr, ptr, ptr }
%"struct.std::array" = type { [2 x i32] }

; Function Attrs: mustprogress uwtable
define noundef i32 @_ZNK10open_spiel12breakthrough17BreakthroughState13CurrentPlayerEv(ptr noundef nonnull align 8 dereferenceable(112) %0) unnamed_addr #4 align 2 {
  %2 = alloca i32, align 4
  %3 = alloca ptr, align 8
  store ptr %0, ptr %3, align 8
  %4 = load ptr, ptr %3, align 8
  %5 = load ptr, ptr %4, align 8
  %6 = getelementptr inbounds ptr, ptr %5, i64 11
  %7 = load ptr, ptr %6, align 8
  %8 = call noundef zeroext i1 %7(ptr noundef nonnull align 8 dereferenceable(112) %4)
  br i1 %8, label %9, label %10

9:                                                ; preds = %1
  store i32 -4, ptr %2, align 4
  br label %13

10:                                               ; preds = %1
  %11 = getelementptr inbounds nuw %"class.open_spiel::breakthrough::BreakthroughState", ptr %4, i32 0, i32 1
  %12 = load i32, ptr %11, align 4
  store i32 %12, ptr %2, align 4
  br label %13

13:                                               ; preds = %10, %9
  %14 = load i32, ptr %2, align 4
  ret i32 %14
}